target datalayout = "e-m:e-p270:32:32-p271:32:32-p272:64:64-i64:64-i128:128-f80:128-n8:16:32:64-S128"
target triple = "x86_64-pc-linux-gnu"

%struct.AVFormatContext = type { ptr, ptr, ptr, ptr, ptr, i32, i32, ptr, i32, ptr, i32, ptr, ptr, i64, i64, i64, i32, i32, i32, i64, i64, ptr, i32, i32, ptr, i32, i32, i32, i32, ptr, i64, i32, i32, %struct.AVIOInterruptCB, i32, i32, i32, i32, i64, i32, i32, i32, i32, i32, i32, i32, i32, i32, i32, i32, i32, i64, i32, i32, i32, i32, i32, ptr, ptr, ptr, ptr, i32, ptr, ptr, ptr, ptr, i32, ptr, ptr, i64, ptr, ptr, ptr, i64 }
%struct.AVIOInterruptCB = type { ptr, ptr }
%struct.FFOutputFormat = type { %struct.AVOutputFormat, i32, i32, ptr, ptr, ptr, ptr, ptr, ptr, ptr, ptr, ptr, ptr, ptr, ptr }
%struct.AVOutputFormat = type { ptr, ptr, ptr, ptr, i32, i32, i32, i32, ptr, ptr }

@.str = private unnamed_addr constant [44 x i8] c"Requested output format '%s' is not known.\0A\00", align 1
@.str.1 = private unnamed_addr constant [119 x i8] c"Unable to choose an output format for '%s'; use a standard extension for the filename or specify the format manually.\0A\00", align 1
@.str.2 = private unnamed_addr constant [15 x i8] c"Out of memory\0A\00", align 1

; Function Attrs: inlinehint nounwind uwtable
define internal ptr @ffofmt(ptr noundef %0) #3 {
  %2 = alloca ptr, align 8
  store ptr %0, ptr %2, align 8, !tbaa !10
  %3 = load ptr, ptr %2, align 8, !tbaa !10
  ret ptr %3
}

; Function Attrs: nounwind uwtable
define i32 @avformat_alloc_output_context2(ptr noundef %0, ptr noundef %1, ptr noundef %2, ptr noundef %3) #0 {
  %5 = alloca i32, align 4
  %6 = alloca ptr, align 8
  %7 = alloca ptr, align 8
  %8 = alloca ptr, align 8
  %9 = alloca ptr, align 8
  %10 = alloca ptr, align 8
  %11 = alloca i32, align 4
  %12 = alloca i32, align 4
  store ptr %0, ptr %6, align 8, !tbaa !4
  store ptr %1, ptr %7, align 8, !tbaa !10
  store ptr %2, ptr %8, align 8, !tbaa !12
  store ptr %3, ptr %9, align 8, !tbaa !12
  call void @llvm.lifetime.start.p0(i64 8, ptr %10) #11
  %13 = call ptr @avformat_alloc_context()
  store ptr %13, ptr %10, align 8, !tbaa !14
  call void @llvm.lifetime.start.p0(i64 4, ptr %11) #11
  store i32 0, ptr %11, align 4, !tbaa !16
  %14 = load ptr, ptr %6, align 8, !tbaa !4
  store ptr null, ptr %14, align 8, !tbaa !14
  %15 = load ptr, ptr %10, align 8, !tbaa !14
  %16 = icmp ne ptr %15, null
  br i1 %16, label %18, label %17

17:                                               ; preds = %4
  br label %107

18:                                               ; preds = %4
  %19 = load ptr, ptr %7, align 8, !tbaa !10
  %20 = icmp ne ptr %19, null
  br i1 %20, label %43, label %21

21:                                               ; preds = %18
  %22 = load ptr, ptr %8, align 8, !tbaa !12
  %23 = icmp ne ptr %22, null
  br i1 %23, label %24, label %33

24:                                               ; preds = %21
  %25 = load ptr, ptr %8, align 8, !tbaa !12
  %26 = call ptr @av_guess_format(ptr noundef %25, ptr noundef null, ptr noundef null)
  store ptr %26, ptr %7, align 8, !tbaa !10
  %27 = load ptr, ptr %7, align 8, !tbaa !10
  %28 = icmp ne ptr %27, null
  br i1 %28, label %32, label %29

29:                                               ; preds = %24
  %30 = load ptr, ptr %10, align 8, !tbaa !14
  %31 = load ptr, ptr %8, align 8, !tbaa !12
  call void (ptr, i32, ptr, ...) @av_log(ptr noundef %30, i32 noundef 16, ptr noundef @.str, ptr noundef %31)
  store i32 -22, ptr %11, align 4, !tbaa !16
  br label %109

32:                                               ; preds = %24
  br label %42

33:                                               ; preds = %21
  %34 = load ptr, ptr %9, align 8, !tbaa !12
  %35 = call ptr @av_guess_format(ptr noundef null, ptr noundef %34, ptr noundef null)
  store ptr %35, ptr %7, align 8, !tbaa !10
  %36 = load ptr, ptr %7, align 8, !tbaa !10
  %37 = icmp ne ptr %36, null
  br i1 %37, label %41, label %38

38:                                               ; preds = %33
  store i32 -22, ptr %11, align 4, !tbaa !16
  %39 = load ptr, ptr %10, align 8, !tbaa !14
  %40 = load ptr, ptr %9, align 8, !tbaa !12
  call void (ptr, i32, ptr, ...) @av_log(ptr noundef %39, i32 noundef 16, ptr noundef @.str.1, ptr noundef %40)
  br label %109

41:                                               ; preds = %33
  br label %42

42:                                               ; preds = %41, %32
  br label %43

43:                                               ; preds = %42, %18
  %44 = load ptr, ptr %7, align 8, !tbaa !10
  %45 = load ptr, ptr %10, align 8, !tbaa !14
  %46 = getelementptr inbounds nuw %struct.AVFormatContext, ptr %45, i32 0, i32 2
  store ptr %44, ptr %46, align 8, !tbaa !18
  %47 = load ptr, ptr %10, align 8, !tbaa !14
  %48 = getelementptr inbounds nuw %struct.AVFormatContext, ptr %47, i32 0, i32 2
  %49 = load ptr, ptr %48, align 8, !tbaa !18
  %50 = call ptr @ffofmt(ptr noundef %49)
  %51 = getelementptr inbounds nuw %struct.FFOutputFormat, ptr %50, i32 0, i32 1
  %52 = load i32, ptr %51, align 8, !tbaa !31
  %53 = icmp sgt i32 %52, 0
  br i1 %53, label %54, label %90

54:                                               ; preds = %43
  %55 = load ptr, ptr %10, align 8, !tbaa !14
  %56 = getelementptr inbounds nuw %struct.AVFormatContext, ptr %55, i32 0, i32 2
  %57 = load ptr, ptr %56, align 8, !tbaa !18
  %58 = call ptr @ffofmt(ptr noundef %57)
  %59 = getelementptr inbounds nuw %struct.FFOutputFormat, ptr %58, i32 0, i32 1
  %60 = load i32, ptr %59, align 8, !tbaa !31
  %61 = sext i32 %60 to i64
  %62 = call noalias ptr @av_mallocz(i64 noundef %61)
  %63 = load ptr, ptr %10, align 8, !tbaa !14
  %64 = getelementptr inbounds nuw %struct.AVFormatContext, ptr %63, i32 0, i32 3
  store ptr %62, ptr %64, align 8, !tbaa !35
  %65 = load ptr, ptr %10, align 8, !tbaa !14
  %66 = getelementptr inbounds nuw %struct.AVFormatContext, ptr %65, i32 0, i32 3
  %67 = load ptr, ptr %66, align 8, !tbaa !35
  %68 = icmp ne ptr %67, null
  br i1 %68, label %70, label %69

69:                                               ; preds = %54
  br label %107

70:                                               ; preds = %54
  %71 = load ptr, ptr %10, align 8, !tbaa !14
  %72 = getelementptr inbounds nuw %struct.AVFormatContext, ptr %71, i32 0, i32 2
  %73 = load ptr, ptr %72, align 8, !tbaa !18
  %74 = getelementptr inbounds nuw %struct.AVOutputFormat, ptr %73, i32 0, i32 9
  %75 = load ptr, ptr %74, align 8, !tbaa !36
  %76 = icmp ne ptr %75, null
  br i1 %76, label %77, label %89

77:                                               ; preds = %70
  %78 = load ptr, ptr %10, align 8, !tbaa !14
  %79 = getelementptr inbounds nuw %struct.AVFormatContext, ptr %78, i32 0, i32 2
  %80 = load ptr, ptr %79, align 8, !tbaa !18
  %81 = getelementptr inbounds nuw %struct.AVOutputFormat, ptr %80, i32 0, i32 9
  %82 = load ptr, ptr %81, align 8, !tbaa !36
  %83 = load ptr, ptr %10, align 8, !tbaa !14
  %84 = getelementptr inbounds nuw %struct.AVFormatContext, ptr %83, i32 0, i32 3
  %85 = load ptr, ptr %84, align 8, !tbaa !35
  store ptr %82, ptr %85, align 8, !tbaa !37
  %86 = load ptr, ptr %10, align 8, !tbaa !14
  %87 = getelementptr inbounds nuw %struct.AVFormatContext, ptr %86, i32 0, i32 3
  %88 = load ptr, ptr %87, align 8, !tbaa !35
  call void @av_opt_set_defaults(ptr noundef %88)
  br label %89

89:                                               ; preds = %77, %70
  br label %93

90:                                               ; preds = %43
  %91 = load ptr, ptr %10, align 8, !tbaa !14
  %92 = getelementptr inbounds nuw %struct.AVFormatContext, ptr %91, i32 0, i32 3
  store ptr null, ptr %92, align 8, !tbaa !35
  br label %93

93:                                               ; preds = %90, %89
  %94 = load ptr, ptr %9, align 8, !tbaa !12
  %95 = icmp ne ptr %94, null
  br i1 %95, label %96, label %104

96:                                               ; preds = %93
  %97 = load ptr, ptr %9, align 8, !tbaa !12
  %98 = call noalias ptr @av_strdup(ptr noundef %97)
  %99 = load ptr, ptr %10, align 8, !tbaa !14
  %100 = getelementptr inbounds nuw %struct.AVFormatContext, ptr %99, i32 0, i32 12
  store ptr %98, ptr %100, align 8, !tbaa !38
  %101 = icmp ne ptr %98, null
  br i1 %101, label %103, label %102

102:                                              ; preds = %96
  br label %107

103:                                              ; preds = %96
  br label %104

104:                                              ; preds = %103, %93
  %105 = load ptr, ptr %10, align 8, !tbaa !14
  %106 = load ptr, ptr %6, align 8, !tbaa !4
  store ptr %105, ptr %106, align 8, !tbaa !14
  store i32 0, ptr %5, align 4
  store i32 1, ptr %12, align 4
  br label %112

107:                                              ; preds = %102, %69, %17
  %108 = load ptr, ptr %10, align 8, !tbaa !14
  call void (ptr, i32, ptr, ...) @av_log(ptr noundef %108, i32 noundef 16, ptr noundef @.str.2)
  store i32 -12, ptr %11, align 4, !tbaa !16
  br label %109

109:                                              ; preds = %107, %38, %29
  %110 = load ptr, ptr %10, align 8, !tbaa !14
  call void @avformat_free_context(ptr noundef %110)
  %111 = load i32, ptr %11, align 4, !tbaa !16
  store i32 %111, ptr %5, align 4
  store i32 1, ptr %12, align 4
  br label %112

112:                                              ; preds = %109, %104
  call void @llvm.lifetime.end.p0(i64 4, ptr %11) #11
  call void @llvm.lifetime.end.p0(i64 8, ptr %10) #11
  %113 = load i32, ptr %5, align 4
  ret i32 %113
}