; Function Attrs: nounwind uwtable
define range(i32 -22, 1) i32 @avformat_alloc_output_context2(ptr noundef writeonly captures(none) initializes((0, 8)) %0, ptr noundef %1, ptr noundef %2, ptr noundef %3) local_unnamed_addr #0 {
  %5 = tail call ptr @avformat_alloc_context() #13
  store ptr null, ptr %0, align 8, !tbaa !4
  %.not = icmp eq ptr %5, null
  br i1 %.not, label %35, label %6

6:                                                ; preds = %4
  %.not41 = icmp eq ptr %1, null
  br i1 %.not41, label %7, label %14

7:                                                ; preds = %6
  %.not42 = icmp eq ptr %2, null
  br i1 %.not42, label %11, label %8

8:                                                ; preds = %7
  %9 = tail call ptr @av_guess_format(ptr noundef nonnull %2, ptr noundef null, ptr noundef null) #13
  %.not44 = icmp eq ptr %9, null
  br i1 %.not44, label %10, label %14

10:                                               ; preds = %8
  tail call void (ptr, i32, ptr, ...) @av_log(ptr noundef nonnull %5, i32 noundef 16, ptr noundef nonnull @.str, ptr noundef nonnull %2) #13
  br label %36

11:                                               ; preds = %7
  %12 = tail call ptr @av_guess_format(ptr noundef null, ptr noundef %3, ptr noundef null) #13
  %.not43 = icmp eq ptr %12, null
  br i1 %.not43, label %13, label %14

13:                                               ; preds = %11
  tail call void (ptr, i32, ptr, ...) @av_log(ptr noundef nonnull %5, i32 noundef 16, ptr noundef nonnull @.str.1, ptr noundef %3) #13
  br label %36

14:                                               ; preds = %8, %11, %6
  %.032 = phi ptr [ %1, %6 ], [ %9, %8 ], [ %12, %11 ]
  %15 = getelementptr inbounds nuw i8, ptr %5, i64 16
  store ptr %.032, ptr %15, align 8, !tbaa !9
  %16 = getelementptr inbounds nuw i8, ptr %.032, i64 64
  %17 = load i32, ptr %16, align 8, !tbaa !26
  %18 = icmp sgt i32 %17, 0
  br i1 %18, label %19, label %28

19:                                               ; preds = %14
  %20 = zext nneg i32 %17 to i64
  %21 = tail call noalias ptr @av_mallocz(i64 noundef %20) #13
  %22 = getelementptr inbounds nuw i8, ptr %5, i64 24
  store ptr %21, ptr %22, align 8, !tbaa !30
  %.not45 = icmp eq ptr %21, null
  br i1 %.not45, label %35, label %23

23:                                               ; preds = %19
  %24 = load ptr, ptr %15, align 8, !tbaa !9
  %25 = getelementptr inbounds nuw i8, ptr %24, i64 56
  %26 = load ptr, ptr %25, align 8, !tbaa !31
  %.not46 = icmp eq ptr %26, null
  br i1 %.not46, label %30, label %27

27:                                               ; preds = %23
  store ptr %26, ptr %21, align 8, !tbaa !32
  tail call void @av_opt_set_defaults(ptr noundef nonnull %21) #13
  br label %30

28:                                               ; preds = %14
  %29 = getelementptr inbounds nuw i8, ptr %5, i64 24
  store ptr null, ptr %29, align 8, !tbaa !30
  br label %30

30:                                               ; preds = %23, %27, %28
  %.not47 = icmp eq ptr %3, null
  br i1 %.not47, label %34, label %31

31:                                               ; preds = %30
  %32 = tail call noalias ptr @av_strdup(ptr noundef nonnull %3) #13
  %33 = getelementptr inbounds nuw i8, ptr %5, i64 88
  store ptr %32, ptr %33, align 8, !tbaa !33
  %.not48 = icmp eq ptr %32, null
  br i1 %.not48, label %35, label %34

34:                                               ; preds = %31, %30
  store ptr %5, ptr %0, align 8, !tbaa !4
  br label %37

35:                                               ; preds = %31, %19, %4
  tail call void (ptr, i32, ptr, ...) @av_log(ptr noundef %5, i32 noundef 16, ptr noundef nonnull @.str.2) #13
  br label %36

36:                                               ; preds = %35, %13, %10
  %.0 = phi i32 [ -12, %35 ], [ -22, %10 ], [ -22, %13 ]
  tail call void @avformat_free_context(ptr noundef %5) #13
  br label %37

37:                                               ; preds = %36, %34
  %.031 = phi i32 [ 0, %34 ], [ %.0, %36 ]
  ret i32 %.031
}